; Function Attrs: nounwind uwtable
define ptr @l_Lean_Compiler_LCNF_DeclValue_forCodeM___at_Lean_Compiler_LCNF_eraseDecl___spec__1(ptr noundef %0, ptr noundef %1, ptr noundef %2, ptr noundef %3, ptr noundef %4, ptr noundef %5, ptr noundef %6) local_unnamed_addr #2 {
  %8 = ptrtoint ptr %1 to i64
  %9 = and i64 %8, 1
  %.not.i42 = icmp eq i64 %9, 0
  br i1 %.not.i42, label %13, label %10

10:                                               ; preds = %7
  %11 = lshr i64 %8, 1
  %12 = trunc i64 %11 to i32
  br label %lean_obj_tag.exit

13:                                               ; preds = %7
  %14 = getelementptr i8, ptr %1, i64 4
  %.val.i = load i32, ptr %14, align 4
  %15 = lshr i32 %.val.i, 24
  br label %lean_obj_tag.exit

lean_obj_tag.exit:                                ; preds = %10, %13
  %.0.i = phi i32 [ %12, %10 ], [ %15, %13 ]
  %16 = icmp eq i32 %.0.i, 0
  br i1 %16, label %17, label %36

17:                                               ; preds = %lean_obj_tag.exit
  %18 = getelementptr inbounds nuw i8, ptr %1, i64 8
  %19 = load ptr, ptr %18, align 8, !tbaa !4
  %20 = ptrtoint ptr %19 to i64
  %21 = and i64 %20, 1
  %.not50 = icmp eq i64 %21, 0
  br i1 %.not50, label %22, label %lean_inc.exit

22:                                               ; preds = %17
  %.val.i43 = load i32, ptr %19, align 4, !tbaa !8
  %23 = icmp sgt i32 %.val.i43, 0
  br i1 %23, label %24, label %26, !prof !11

24:                                               ; preds = %22
  %25 = add nuw i32 %.val.i43, 1
  store i32 %25, ptr %19, align 4, !tbaa !8
  br label %lean_inc.exit

26:                                               ; preds = %22
  %.not.i44 = icmp eq i32 %.val.i43, 0
  br i1 %.not.i44, label %lean_inc.exit, label %27

27:                                               ; preds = %26
  tail call void @lean_inc_ref_cold(ptr noundef nonnull %19) #6
  br label %lean_inc.exit

lean_inc.exit:                                    ; preds = %27, %26, %24, %17
  br i1 %.not.i42, label %28, label %lean_dec.exit29

28:                                               ; preds = %lean_inc.exit
  %29 = load i32, ptr %1, align 4, !tbaa !8
  %30 = icmp sgt i32 %29, 1
  br i1 %30, label %31, label %33, !prof !11

31:                                               ; preds = %28
  %32 = add nsw i32 %29, -1
  store i32 %32, ptr %1, align 4, !tbaa !8
  br label %lean_dec.exit29

33:                                               ; preds = %28
  %.not.i = icmp eq i32 %29, 0
  br i1 %.not.i, label %lean_dec.exit29, label %34

34:                                               ; preds = %33
  tail call void @lean_dec_ref_cold(ptr noundef nonnull %1) #6
  br label %lean_dec.exit29

lean_dec.exit29:                                  ; preds = %34, %33, %31, %lean_inc.exit
  %35 = tail call ptr @lean_apply_6(ptr noundef %0, ptr noundef %19, ptr noundef %2, ptr noundef %3, ptr noundef %4, ptr noundef %5, ptr noundef %6) #6
  br label %95

36:                                               ; preds = %lean_obj_tag.exit
  %37 = ptrtoint ptr %5 to i64
  %38 = and i64 %37, 1
  %.not = icmp eq i64 %38, 0
  br i1 %.not, label %39, label %lean_dec.exit28

39:                                               ; preds = %36
  %40 = load i32, ptr %5, align 4, !tbaa !8
  %41 = icmp sgt i32 %40, 1
  br i1 %41, label %42, label %44, !prof !11

42:                                               ; preds = %39
  %43 = add nsw i32 %40, -1
  store i32 %43, ptr %5, align 4, !tbaa !8
  br label %lean_dec.exit28

44:                                               ; preds = %39
  %.not.i30 = icmp eq i32 %40, 0
  br i1 %.not.i30, label %lean_dec.exit28, label %45

45:                                               ; preds = %44
  tail call void @lean_dec_ref_cold(ptr noundef nonnull %5) #6
  br label %lean_dec.exit28

lean_dec.exit28:                                  ; preds = %45, %44, %42, %36
  %46 = ptrtoint ptr %4 to i64
  %47 = and i64 %46, 1
  %.not45 = icmp eq i64 %47, 0
  br i1 %.not45, label %48, label %lean_dec.exit27

48:                                               ; preds = %lean_dec.exit28
  %49 = load i32, ptr %4, align 4, !tbaa !8
  %50 = icmp sgt i32 %49, 1
  br i1 %50, label %51, label %53, !prof !11

51:                                               ; preds = %48
  %52 = add nsw i32 %49, -1
  store i32 %52, ptr %4, align 4, !tbaa !8
  br label %lean_dec.exit27

53:                                               ; preds = %48
  %.not.i32 = icmp eq i32 %49, 0
  br i1 %.not.i32, label %lean_dec.exit27, label %54

54:                                               ; preds = %53
  tail call void @lean_dec_ref_cold(ptr noundef nonnull %4) #6
  br label %lean_dec.exit27

lean_dec.exit27:                                  ; preds = %54, %53, %51, %lean_dec.exit28
  %55 = ptrtoint ptr %3 to i64
  %56 = and i64 %55, 1
  %.not46 = icmp eq i64 %56, 0
  br i1 %.not46, label %57, label %lean_dec.exit26

57:                                               ; preds = %lean_dec.exit27
  %58 = load i32, ptr %3, align 4, !tbaa !8
  %59 = icmp sgt i32 %58, 1
  br i1 %59, label %60, label %62, !prof !11

60:                                               ; preds = %57
  %61 = add nsw i32 %58, -1
  store i32 %61, ptr %3, align 4, !tbaa !8
  br label %lean_dec.exit26

62:                                               ; preds = %57
  %.not.i34 = icmp eq i32 %58, 0
  br i1 %.not.i34, label %lean_dec.exit26, label %63

63:                                               ; preds = %62
  tail call void @lean_dec_ref_cold(ptr noundef nonnull %3) #6
  br label %lean_dec.exit26

lean_dec.exit26:                                  ; preds = %63, %62, %60, %lean_dec.exit27
  %64 = ptrtoint ptr %2 to i64
  %65 = and i64 %64, 1
  %.not47 = icmp eq i64 %65, 0
  br i1 %.not47, label %66, label %lean_dec.exit25

66:                                               ; preds = %lean_dec.exit26
  %67 = load i32, ptr %2, align 4, !tbaa !8
  %68 = icmp sgt i32 %67, 1
  br i1 %68, label %69, label %71, !prof !11

69:                                               ; preds = %66
  %70 = add nsw i32 %67, -1
  store i32 %70, ptr %2, align 4, !tbaa !8
  br label %lean_dec.exit25

71:                                               ; preds = %66
  %.not.i36 = icmp eq i32 %67, 0
  br i1 %.not.i36, label %lean_dec.exit25, label %72

72:                                               ; preds = %71
  tail call void @lean_dec_ref_cold(ptr noundef nonnull %2) #6
  br label %lean_dec.exit25

lean_dec.exit25:                                  ; preds = %72, %71, %69, %lean_dec.exit26
  br i1 %.not.i42, label %73, label %lean_dec.exit24

73:                                               ; preds = %lean_dec.exit25
  %74 = load i32, ptr %1, align 4, !tbaa !8
  %75 = icmp sgt i32 %74, 1
  br i1 %75, label %76, label %78, !prof !11

76:                                               ; preds = %73
  %77 = add nsw i32 %74, -1
  store i32 %77, ptr %1, align 4, !tbaa !8
  br label %lean_dec.exit24

78:                                               ; preds = %73
  %.not.i38 = icmp eq i32 %74, 0
  br i1 %.not.i38, label %lean_dec.exit24, label %79

79:                                               ; preds = %78
  tail call void @lean_dec_ref_cold(ptr noundef nonnull %1) #6
  br label %lean_dec.exit24

lean_dec.exit24:                                  ; preds = %79, %78, %76, %lean_dec.exit25
  %80 = ptrtoint ptr %0 to i64
  %81 = and i64 %80, 1
  %.not49 = icmp eq i64 %81, 0
  br i1 %.not49, label %82, label %lean_dec.exit

82:                                               ; preds = %lean_dec.exit24
  %83 = load i32, ptr %0, align 4, !tbaa !8
  %84 = icmp sgt i32 %83, 1
  br i1 %84, label %85, label %87, !prof !11

85:                                               ; preds = %82
  %86 = add nsw i32 %83, -1
  store i32 %86, ptr %0, align 4, !tbaa !8
  br label %lean_dec.exit

87:                                               ; preds = %82
  %.not.i40 = icmp eq i32 %83, 0
  br i1 %.not.i40, label %lean_dec.exit, label %88

88:                                               ; preds = %87
  tail call void @lean_dec_ref_cold(ptr noundef nonnull %0) #6
  br label %lean_dec.exit

lean_dec.exit:                                    ; preds = %88, %87, %85, %lean_dec.exit24
  tail call void @lean_inc_heartbeat() #6
  %89 = tail call noalias ptr @mi_malloc_small(i64 noundef 24) #6
  %90 = icmp eq ptr %89, null
  br i1 %90, label %91, label %lean_alloc_ctor.exit

91:                                               ; preds = %lean_dec.exit
  tail call void @lean_internal_panic_out_of_memory() #7
  unreachable

lean_alloc_ctor.exit:                             ; preds = %lean_dec.exit
  %92 = getelementptr inbounds nuw i8, ptr %89, i64 4
  store i32 1, ptr %89, align 4, !tbaa !8
  store i32 131096, ptr %92, align 4
  %93 = getelementptr inbounds nuw i8, ptr %89, i64 8
  store ptr inttoptr (i64 1 to ptr), ptr %93, align 8, !tbaa !4
  %94 = getelementptr inbounds nuw i8, ptr %89, i64 16
  store ptr %6, ptr %94, align 8, !tbaa !4
  br label %95

95:                                               ; preds = %lean_alloc_ctor.exit, %lean_dec.exit29
  %.0 = phi ptr [ %35, %lean_dec.exit29 ], [ %89, %lean_alloc_ctor.exit ]
  ret ptr %.0
}